target datalayout = "e-m:e-p270:32:32-p271:32:32-p272:64:64-i64:64-i128:128-f80:128-n8:16:32:64-S128"
target triple = "x86_64-pc-linux-gnu"

@.str = private unnamed_addr constant [15 x i8] c"rb_eval_string\00", align 1

; Function Attrs: nounwind sspstrong uwtable
define weak i64 @ruby_abi_version() #0 {
  ret i64 0
}

; Function Attrs: nounwind sspstrong uwtable
define void @Init_eval() #0 {
  call void @rb_define_global_function(ptr noundef @.str, ptr noundef @eval_string, i32 noundef 1)
  ret void
}

declare extern_weak void @rb_define_global_function(ptr noundef, ptr noundef, i32 noundef) #1

; Function Attrs: nounwind sspstrong uwtable
define internal i64 @eval_string(i64 noundef %0, i64 noundef %1) #0 {
  %3 = alloca i64, align 8
  %4 = alloca i64, align 8
  store i64 %0, ptr %3, align 8, !tbaa !6
  store i64 %1, ptr %4, align 8, !tbaa !6
  %5 = call ptr @rb_string_value_cstr(ptr noundef %4)
  %6 = call i64 @rb_eval_string(ptr noundef %5)
  ret i64 %6
}

declare i64 @rb_eval_string(ptr noundef) #1

declare ptr @rb_string_value_cstr(ptr noundef) #1


!llvm.module.flags = !{!0, !1, !2, !3, !4, !5}

!0 = !{i32 7, !"Dwarf Version", i32 5}
!1 = !{i32 2, !"Debug Info Version", i32 3}
!2 = !{i32 1, !"wchar_size", i32 4}
!3 = !{i32 8, !"PIC Level", i32 2}
!4 = !{i32 7, !"uwtable", i32 2}
!5 = !{i32 7, !"debug-info-assignment-tracking", i1 true}
!6 = !{!7, !7, i64 0}
!7 = !{!"long", !8, i64 0}
!8 = !{!"omnipotent char", !9, i64 0}
!9 = !{!"Simple C/C++ TBAA"}
